target datalayout = "e-m:e-p270:32:32-p271:32:32-p272:64:64-i64:64-i128:128-f80:128-n8:16:32:64-S128"
target triple = "x86_64-pc-linux-gnu"

@.str.39 = private unnamed_addr constant [55 x i8] c"client_scan: Failed to determine real filename of %s.\0A\00", align 1
@.str.40 = private unnamed_addr constant [31 x i8] c"Can't make room for fullpath.\0A\00", align 1
@.str.41 = private unnamed_addr constant [59 x i8] c"Can't get absolute pathname of current working directory.\0A\00", align 1
@.str.42 = private unnamed_addr constant [4 x i8] c"/%s\00", align 1

; Function Attrs: nounwind uwtable
define internal ptr @makeabs(ptr noundef %0) #0 {
  %2 = alloca ptr, align 8
  %3 = alloca ptr, align 8
  %4 = alloca i32, align 4
  %5 = alloca ptr, align 8
  store ptr %0, ptr %3, align 8
  %6 = call noalias ptr @malloc(i64 noundef 4097) #11
  store ptr %6, ptr %5, align 8
  %7 = icmp ne ptr %6, null
  br i1 %7, label %10, label %8

8:                                                ; preds = %1
  %9 = call i32 (i32, ptr, ...) @logg(i32 noundef 4, ptr noundef @.str.40)
  store ptr null, ptr %2, align 8
  br label %42

10:                                               ; preds = %1
  %11 = load ptr, ptr %3, align 8
  %12 = call i32 @cli_is_abspath(ptr noundef %11)
  %13 = icmp ne i32 %12, 0
  br i1 %13, label %34, label %14

14:                                               ; preds = %10
  %15 = load ptr, ptr %5, align 8
  %16 = call ptr @getcwd(ptr noundef %15, i64 noundef 4096) #9
  %17 = icmp ne ptr %16, null
  br i1 %17, label %21, label %18

18:                                               ; preds = %14
  %19 = call i32 (i32, ptr, ...) @logg(i32 noundef 4, ptr noundef @.str.41)
  %20 = load ptr, ptr %5, align 8
  call void @free(ptr noundef %20) #9
  store ptr null, ptr %2, align 8
  br label %42

21:                                               ; preds = %14
  %22 = load ptr, ptr %5, align 8
  %23 = call i64 @strlen(ptr noundef %22) #8
  %24 = trunc i64 %23 to i32
  store i32 %24, ptr %4, align 4
  %25 = load ptr, ptr %5, align 8
  %26 = load i32, ptr %4, align 4
  %27 = sext i32 %26 to i64
  %28 = getelementptr inbounds i8, ptr %25, i64 %27
  %29 = load i32, ptr %4, align 4
  %30 = sub nsw i32 4096, %29
  %31 = sext i32 %30 to i64
  %32 = load ptr, ptr %3, align 8
  %33 = call i32 (ptr, i64, ptr, ...) @snprintf(ptr noundef %28, i64 noundef %31, ptr noundef @.str.42, ptr noundef %32) #9
  br label %38

34:                                               ; preds = %10
  %35 = load ptr, ptr %5, align 8
  %36 = load ptr, ptr %3, align 8
  %37 = call ptr @strncpy(ptr noundef %35, ptr noundef %36, i64 noundef 4096) #9
  br label %38

38:                                               ; preds = %34, %21
  %39 = load ptr, ptr %5, align 8
  %40 = getelementptr inbounds i8, ptr %39, i64 4096
  store i8 0, ptr %40, align 1
  %41 = load ptr, ptr %5, align 8
  store ptr %41, ptr %2, align 8
  br label %42

42:                                               ; preds = %38, %18, %8
  %43 = load ptr, ptr %2, align 8
  ret ptr %43
}

; Function Attrs: nounwind uwtable
define internal i32 @client_scan(ptr noundef %0, i32 noundef %1, ptr noundef %2, ptr noundef %3, i32 noundef %4, i32 noundef %5, i32 noundef %6) #0 {
  %8 = alloca i32, align 4
  %9 = alloca ptr, align 8
  %10 = alloca i32, align 4
  %11 = alloca ptr, align 8
  %12 = alloca ptr, align 8
  %13 = alloca i32, align 4
  %14 = alloca i32, align 4
  %15 = alloca i32, align 4
  %16 = alloca i32, align 4
  %17 = alloca ptr, align 8
  %18 = alloca ptr, align 8
  store ptr %0, ptr %9, align 8
  store i32 %1, ptr %10, align 4
  store ptr %2, ptr %11, align 8
  store ptr %3, ptr %12, align 8
  store i32 %4, ptr %13, align 4
  store i32 %5, ptr %14, align 4
  store i32 %6, ptr %15, align 4
  store ptr null, ptr %17, align 8
  store ptr null, ptr %18, align 8
  %19 = load ptr, ptr %9, align 8
  %20 = call ptr @makeabs(ptr noundef %19)
  store ptr %20, ptr %18, align 8
  %21 = load ptr, ptr %18, align 8
  %22 = call i32 @cli_realpath(ptr noundef %21, ptr noundef %17)
  %23 = icmp ne i32 0, %22
  br i1 %23, label %24, label %27

24:                                               ; preds = %7
  %25 = load ptr, ptr %18, align 8
  %26 = call i32 (i32, ptr, ...) @logg(i32 noundef 2, ptr noundef @.str.39, ptr noundef %25)
  br label %30

27:                                               ; preds = %7
  %28 = load ptr, ptr %18, align 8
  call void @free(ptr noundef %28) #9
  %29 = load ptr, ptr %17, align 8
  store ptr %29, ptr %18, align 8
  br label %30

30:                                               ; preds = %27, %24
  %31 = load ptr, ptr %18, align 8
  %32 = icmp ne ptr %31, null
  br i1 %32, label %34, label %33

33:                                               ; preds = %30
  store i32 0, ptr %8, align 4
  br label %56

34:                                               ; preds = %30
  %35 = load i32, ptr %14, align 4
  %36 = icmp ne i32 %35, 0
  br i1 %36, label %45, label %37

37:                                               ; preds = %34
  %38 = load ptr, ptr %18, align 8
  %39 = load i32, ptr %10, align 4
  %40 = load ptr, ptr %11, align 8
  %41 = load ptr, ptr %12, align 8
  %42 = load i32, ptr %13, align 4
  %43 = load i32, ptr %15, align 4
  %44 = call i32 @serial_client_scan(ptr noundef %38, i32 noundef %39, ptr noundef %40, ptr noundef %41, i32 noundef %42, i32 noundef %43)
  store i32 %44, ptr %16, align 4
  br label %53

45:                                               ; preds = %34
  %46 = load ptr, ptr %18, align 8
  %47 = load i32, ptr %10, align 4
  %48 = load ptr, ptr %11, align 8
  %49 = load ptr, ptr %12, align 8
  %50 = load i32, ptr %13, align 4
  %51 = load i32, ptr %15, align 4
  %52 = call i32 @parallel_client_scan(ptr noundef %46, i32 noundef %47, ptr noundef %48, ptr noundef %49, i32 noundef %50, i32 noundef %51)
  store i32 %52, ptr %16, align 4
  br label %53

53:                                               ; preds = %45, %37
  %54 = load ptr, ptr %18, align 8
  call void @free(ptr noundef %54) #9
  %55 = load i32, ptr %16, align 4
  store i32 %55, ptr %8, align 4
  br label %56

56:                                               ; preds = %53, %33
  %57 = load i32, ptr %8, align 4
  ret i32 %57
}