; Function Attrs: nounwind uwtable
define internal fastcc i32 @client_scan(ptr noundef %0, i32 noundef %1, ptr noundef %2, ptr noundef %3, i32 noundef %4, i32 noundef %5, i32 noundef %6) unnamed_addr #0 {
  %8 = alloca ptr, align 8
  store ptr null, ptr %8, align 8
  %9 = tail call noalias dereferenceable_or_null(4097) ptr @malloc(i64 noundef 4097) #17
  %.not.i = icmp eq ptr %9, null
  br i1 %.not.i, label %10, label %12

10:                                               ; preds = %7
  %11 = tail call i32 (i32, ptr, ...) @logg(i32 noundef 4, ptr noundef nonnull @.str.40) #14
  br label %makeabs.exit

12:                                               ; preds = %7
  %13 = tail call i32 @cli_is_abspath(ptr noundef %0) #14
  %.not13.i = icmp eq i32 %13, 0
  br i1 %.not13.i, label %14, label %24

14:                                               ; preds = %12
  %15 = tail call ptr @getcwd(ptr noundef nonnull %9, i64 noundef 4096) #14
  %.not14.i = icmp eq ptr %15, null
  br i1 %.not14.i, label %16, label %18

16:                                               ; preds = %14
  %17 = tail call i32 (i32, ptr, ...) @logg(i32 noundef 4, ptr noundef nonnull @.str.41) #14
  tail call void @free(ptr noundef nonnull %9) #14
  br label %makeabs.exit

18:                                               ; preds = %14
  %19 = tail call i64 @strlen(ptr noundef nonnull dereferenceable(1) %9) #15
  %sext.i = shl i64 %19, 32
  %20 = ashr exact i64 %sext.i, 32
  %21 = getelementptr inbounds i8, ptr %9, i64 %20
  %sext15.i = sub i64 17592186044416, %sext.i
  %22 = ashr exact i64 %sext15.i, 32
  %23 = tail call i32 (ptr, i64, ptr, ...) @snprintf(ptr noundef nonnull %21, i64 noundef %22, ptr noundef nonnull @.str.42, ptr noundef %0) #14
  br label %26

24:                                               ; preds = %12
  %25 = tail call ptr @strncpy(ptr noundef nonnull dereferenceable(1) %9, ptr noundef nonnull dereferenceable(1) %0, i64 noundef 4096) #14
  br label %26

26:                                               ; preds = %24, %18
  %27 = getelementptr inbounds i8, ptr %9, i64 4096
  store i8 0, ptr %27, align 1
  br label %makeabs.exit

makeabs.exit:                                     ; preds = %10, %16, %26
  %.0.i = phi ptr [ %9, %26 ], [ null, %16 ], [ null, %10 ]
  %28 = call i32 @cli_realpath(ptr noundef %.0.i, ptr noundef nonnull %8) #14
  %.not = icmp eq i32 %28, 0
  br i1 %.not, label %31, label %29

29:                                               ; preds = %makeabs.exit
  %30 = call i32 (i32, ptr, ...) @logg(i32 noundef 2, ptr noundef nonnull @.str.39, ptr noundef %.0.i) #14
  br label %33

31:                                               ; preds = %makeabs.exit
  call void @free(ptr noundef %.0.i) #14
  %32 = load ptr, ptr %8, align 8
  br label %33

33:                                               ; preds = %31, %29
  %.0 = phi ptr [ %.0.i, %29 ], [ %32, %31 ]
  %.not22 = icmp eq ptr %.0, null
  br i1 %.not22, label %40, label %34

34:                                               ; preds = %33
  %.not23 = icmp eq i32 %5, 0
  br i1 %.not23, label %35, label %37

35:                                               ; preds = %34
  %36 = call i32 @serial_client_scan(ptr noundef nonnull %.0, i32 noundef %1, ptr noundef %2, ptr noundef %3, i32 noundef %4, i32 noundef %6) #14
  br label %39

37:                                               ; preds = %34
  %38 = call i32 @parallel_client_scan(ptr noundef nonnull %.0, i32 noundef %1, ptr noundef %2, ptr noundef %3, i32 noundef %4, i32 noundef %6) #14
  br label %39

39:                                               ; preds = %37, %35
  %.020 = phi i32 [ %38, %37 ], [ %36, %35 ]
  call void @free(ptr noundef nonnull %.0) #14
  br label %40

40:                                               ; preds = %33, %39
  %.021 = phi i32 [ %.020, %39 ], [ 0, %33 ]
  ret i32 %.021
}